; Function Attrs: mustprogress uwtable
define { i64, i64 } @_ZN7rocksdb8MemTable16ApproximateStatsERKNS_5SliceES3_(ptr noundef nonnull readonly align 16 captures(none) dereferenceable(3552) %0, ptr noundef nonnull align 8 dereferenceable(16) %1, ptr noundef nonnull align 8 dereferenceable(16) %2) unnamed_addr #4 align 2 {
  %4 = getelementptr inbounds nuw i8, ptr %0, i64 3200
  %5 = load ptr, ptr %4, align 16, !tbaa !326
  %6 = load ptr, ptr %5, align 8, !tbaa !19
  %7 = getelementptr inbounds nuw i8, ptr %6, i64 112
  %8 = load ptr, ptr %7, align 8
  %9 = tail call noundef i64 %8(ptr noundef nonnull align 8 dereferenceable(16) %5, ptr noundef nonnull align 8 dereferenceable(16) %1, ptr noundef nonnull align 8 dereferenceable(16) %2)
  %10 = getelementptr inbounds nuw i8, ptr %0, i64 3208
  %11 = load ptr, ptr %10, align 8, !tbaa !326
  %12 = load ptr, ptr %11, align 8, !tbaa !19
  %13 = getelementptr inbounds nuw i8, ptr %12, i64 112
  %14 = load ptr, ptr %13, align 8
  %15 = tail call noundef i64 %14(ptr noundef nonnull align 8 dereferenceable(16) %11, ptr noundef nonnull align 8 dereferenceable(16) %1, ptr noundef nonnull align 8 dereferenceable(16) %2)
  %16 = add i64 %15, %9
  %17 = icmp eq i64 %16, 0
  br i1 %17, label %27, label %18

18:                                               ; preds = %3
  %19 = getelementptr inbounds nuw i8, ptr %0, i64 3232
  %20 = load atomic i64, ptr %19 monotonic, align 16
  %21 = icmp eq i64 %20, 0
  br i1 %21, label %27, label %22

22:                                               ; preds = %18
  %spec.select = tail call i64 @llvm.umin.i64(i64 %16, i64 %20)
  %23 = getelementptr inbounds nuw i8, ptr %0, i64 3224
  %24 = load atomic i64, ptr %23 monotonic, align 8
  %25 = udiv i64 %24, %20
  %26 = mul i64 %25, %spec.select
  br label %27

27:                                               ; preds = %22, %18, %3
  %.sroa.0.0 = phi i64 [ 0, %3 ], [ %26, %22 ], [ 0, %18 ]
  %.sroa.4.0 = phi i64 [ 0, %3 ], [ %spec.select, %22 ], [ 0, %18 ]
  %.fca.0.insert = insertvalue { i64, i64 } poison, i64 %.sroa.0.0, 0
  %.fca.1.insert = insertvalue { i64, i64 } %.fca.0.insert, i64 %.sroa.4.0, 1
  ret { i64, i64 } %.fca.1.insert
}